target datalayout = "e-m:e-p270:32:32-p271:32:32-p272:64:64-i64:64-i128:128-f80:128-n8:16:32:64-S128"
target triple = "x86_64-pc-linux-gnu"

@hf_ulmap_padding = internal global i32 0, align 4
@hf_ulmap_reserved_uint = internal global i32 0, align 4
@hf_ulmap_feedback_polling_extended_2_uiuc = internal global i32 0, align 4
@hf_ulmap_feedback_polling_length = internal global i32 0, align 4
@hf_ulmap_feedback_polling_num_allocation = internal global i32 0, align 4
@hf_ulmap_feedback_polling_dedicated_ul_allocation_included = internal global i32 0, align 4
@hf_ulmap_feedback_polling_basic_cid = internal global i32 0, align 4
@hf_ulmap_feedback_polling_allocation_duration = internal global i32 0, align 4
@hf_ulmap_feedback_polling_type = internal global i32 0, align 4
@hf_ulmap_feedback_polling_frame_offset = internal global i32 0, align 4
@hf_ulmap_feedback_polling_period = internal global i32 0, align 4
@hf_ulmap_feedback_polling_uiuc = internal global i32 0, align 4
@hf_ulmap_feedback_polling_ofdma_symbol_offset = internal global i32 0, align 4
@hf_ulmap_feedback_polling_subchannel_offset = internal global i32 0, align 4
@hf_ulmap_feedback_polling_duration = internal global i32 0, align 4
@hf_ulmap_feedback_polling_repetition_coding_indication = internal global i32 0, align 4
@ett_302v = internal global i32 0, align 4
@.str.525 = private unnamed_addr constant [8 x i8] c"%d bits\00", align 1
@.str.543 = private unnamed_addr constant [20 x i8] c"Feedback_Polling_IE\00", align 1

; Function Attrs: null_pointer_is_valid sspstrong uwtable
define internal i32 @Feedback_Polling_IE(ptr noundef %0, i32 noundef %1, i32 noundef %2, ptr noundef %3) #1 {
  %5 = alloca ptr, align 8
  %6 = alloca i32, align 4
  %7 = alloca i32, align 4
  %8 = alloca ptr, align 8
  %9 = alloca i32, align 4
  %10 = alloca ptr, align 8
  %11 = alloca i32, align 4
  %12 = alloca i32, align 4
  %13 = alloca i32, align 4
  %14 = alloca i32, align 4
  %15 = alloca i32, align 4
  store ptr %0, ptr %5, align 8
  store i32 %1, ptr %6, align 4
  store i32 %2, ptr %7, align 4
  store ptr %3, ptr %8, align 8
  call void @llvm.lifetime.start.p0(i64 4, ptr %9) #5
  call void @llvm.lifetime.start.p0(i64 8, ptr %10) #5
  call void @llvm.lifetime.start.p0(i64 4, ptr %11) #5
  call void @llvm.lifetime.start.p0(i64 4, ptr %12) #5
  call void @llvm.lifetime.start.p0(i64 4, ptr %13) #5
  call void @llvm.lifetime.start.p0(i64 4, ptr %14) #5
  call void @llvm.lifetime.start.p0(i64 4, ptr %15) #5
  %16 = load i32, ptr %6, align 4
  %17 = mul i32 %16, 4
  store i32 %17, ptr %9, align 4
  %18 = load ptr, ptr %5, align 8
  %19 = load ptr, ptr %8, align 8
  %20 = load i32, ptr %6, align 4
  %21 = sdiv i32 %20, 2
  %22 = load i32, ptr %6, align 4
  %23 = and i32 %22, 1
  %24 = add i32 1, %23
  %25 = load i32, ptr %7, align 4
  %26 = add i32 %24, %25
  %27 = sdiv i32 %26, 2
  %28 = load i32, ptr @ett_302v, align 4
  %29 = call ptr @proto_tree_add_subtree(ptr noundef %18, ptr noundef %19, i32 noundef %21, i32 noundef %27, i32 noundef %28, ptr noundef null, ptr noundef @.str.543)
  store ptr %29, ptr %10, align 8
  %30 = load ptr, ptr %10, align 8
  %31 = load i32, ptr @hf_ulmap_feedback_polling_extended_2_uiuc, align 4
  %32 = load ptr, ptr %8, align 8
  %33 = load i32, ptr %9, align 4
  %34 = call ptr @proto_tree_add_bits_item(ptr noundef %30, i32 noundef %31, ptr noundef %32, i32 noundef %33, i32 noundef 4, i32 noundef 0)
  %35 = load i32, ptr %9, align 4
  %36 = add i32 %35, 4
  store i32 %36, ptr %9, align 4
  %37 = load ptr, ptr %10, align 8
  %38 = load i32, ptr @hf_ulmap_feedback_polling_length, align 4
  %39 = load ptr, ptr %8, align 8
  %40 = load i32, ptr %9, align 4
  %41 = call ptr @proto_tree_add_bits_item(ptr noundef %37, i32 noundef %38, ptr noundef %39, i32 noundef %40, i32 noundef 8, i32 noundef 0)
  %42 = load i32, ptr %9, align 4
  %43 = add i32 %42, 8
  store i32 %43, ptr %9, align 4
  br label %44

44:                                               ; preds = %4
  %45 = load ptr, ptr %8, align 8
  %46 = load i32, ptr %9, align 4
  %47 = sdiv i32 %46, 8
  %48 = call zeroext i16 @tvb_get_ntohs(ptr noundef %45, i32 noundef %47)
  %49 = zext i16 %48 to i32
  %50 = load i32, ptr %9, align 4
  %51 = srem i32 %50, 8
  %52 = sub i32 16, %51
  %53 = sub i32 %52, 4
  %54 = ashr i32 %49, %53
  %55 = and i32 %54, 15
  store i32 %55, ptr %11, align 4
  %56 = load ptr, ptr %10, align 8
  %57 = load i32, ptr @hf_ulmap_feedback_polling_num_allocation, align 4
  %58 = load ptr, ptr %8, align 8
  %59 = load i32, ptr %9, align 4
  %60 = call ptr @proto_tree_add_bits_item(ptr noundef %56, i32 noundef %57, ptr noundef %58, i32 noundef %59, i32 noundef 4, i32 noundef 0)
  %61 = load i32, ptr %9, align 4
  %62 = add i32 %61, 4
  store i32 %62, ptr %9, align 4
  br label %63

63:                                               ; preds = %44
  br label %64

64:                                               ; preds = %63
  br label %65

65:                                               ; preds = %64
  %66 = load ptr, ptr %8, align 8
  %67 = load i32, ptr %9, align 4
  %68 = sdiv i32 %67, 8
  %69 = call zeroext i8 @tvb_get_uint8(ptr noundef %66, i32 noundef %68)
  %70 = zext i8 %69 to i32
  %71 = load i32, ptr %9, align 4
  %72 = srem i32 %71, 8
  %73 = sub i32 8, %72
  %74 = sub i32 %73, 1
  %75 = ashr i32 %70, %74
  %76 = and i32 %75, 1
  store i32 %76, ptr %12, align 4
  %77 = load ptr, ptr %10, align 8
  %78 = load i32, ptr @hf_ulmap_feedback_polling_dedicated_ul_allocation_included, align 4
  %79 = load ptr, ptr %8, align 8
  %80 = load i32, ptr %9, align 4
  %81 = call ptr @proto_tree_add_bits_item(ptr noundef %77, i32 noundef %78, ptr noundef %79, i32 noundef %80, i32 noundef 1, i32 noundef 0)
  %82 = load i32, ptr %9, align 4
  %83 = add i32 %82, 1
  store i32 %83, ptr %9, align 4
  br label %84

84:                                               ; preds = %65
  br label %85

85:                                               ; preds = %84
  %86 = load ptr, ptr %10, align 8
  %87 = load i32, ptr @hf_ulmap_reserved_uint, align 4
  %88 = load ptr, ptr %8, align 8
  %89 = load i32, ptr %9, align 4
  %90 = call ptr @proto_tree_add_bits_item(ptr noundef %86, i32 noundef %87, ptr noundef %88, i32 noundef %89, i32 noundef 3, i32 noundef 0)
  %91 = load i32, ptr %9, align 4
  %92 = add i32 %91, 3
  store i32 %92, ptr %9, align 4
  store i32 0, ptr %15, align 4
  br label %93

93:                                               ; preds = %190, %85
  %94 = load i32, ptr %15, align 4
  %95 = load i32, ptr %11, align 4
  %96 = icmp slt i32 %94, %95
  br i1 %96, label %97, label %193

97:                                               ; preds = %93
  %98 = load ptr, ptr %10, align 8
  %99 = load i32, ptr @hf_ulmap_feedback_polling_basic_cid, align 4
  %100 = load ptr, ptr %8, align 8
  %101 = load i32, ptr %9, align 4
  %102 = call ptr @proto_tree_add_bits_item(ptr noundef %98, i32 noundef %99, ptr noundef %100, i32 noundef %101, i32 noundef 16, i32 noundef 0)
  %103 = load i32, ptr %9, align 4
  %104 = add i32 %103, 16
  store i32 %104, ptr %9, align 4
  br label %105

105:                                              ; preds = %97
  %106 = load ptr, ptr %8, align 8
  %107 = load i32, ptr %9, align 4
  %108 = sdiv i32 %107, 8
  %109 = call zeroext i16 @tvb_get_ntohs(ptr noundef %106, i32 noundef %108)
  %110 = zext i16 %109 to i32
  %111 = load i32, ptr %9, align 4
  %112 = srem i32 %111, 8
  %113 = sub i32 16, %112
  %114 = sub i32 %113, 3
  %115 = ashr i32 %110, %114
  %116 = and i32 %115, 7
  store i32 %116, ptr %14, align 4
  %117 = load ptr, ptr %10, align 8
  %118 = load i32, ptr @hf_ulmap_feedback_polling_allocation_duration, align 4
  %119 = load ptr, ptr %8, align 8
  %120 = load i32, ptr %9, align 4
  %121 = call ptr @proto_tree_add_bits_item(ptr noundef %117, i32 noundef %118, ptr noundef %119, i32 noundef %120, i32 noundef 3, i32 noundef 0)
  %122 = load i32, ptr %9, align 4
  %123 = add i32 %122, 3
  store i32 %123, ptr %9, align 4
  br label %124

124:                                              ; preds = %105
  br label %125

125:                                              ; preds = %124
  %126 = load i32, ptr %14, align 4
  %127 = icmp ne i32 %126, 0
  br i1 %127, label %128, label %189

128:                                              ; preds = %125
  %129 = load ptr, ptr %10, align 8
  %130 = load i32, ptr @hf_ulmap_feedback_polling_type, align 4
  %131 = load ptr, ptr %8, align 8
  %132 = load i32, ptr %9, align 4
  %133 = call ptr @proto_tree_add_bits_item(ptr noundef %129, i32 noundef %130, ptr noundef %131, i32 noundef %132, i32 noundef 4, i32 noundef 0)
  %134 = load i32, ptr %9, align 4
  %135 = add i32 %134, 4
  store i32 %135, ptr %9, align 4
  %136 = load ptr, ptr %10, align 8
  %137 = load i32, ptr @hf_ulmap_feedback_polling_frame_offset, align 4
  %138 = load ptr, ptr %8, align 8
  %139 = load i32, ptr %9, align 4
  %140 = call ptr @proto_tree_add_bits_item(ptr noundef %136, i32 noundef %137, ptr noundef %138, i32 noundef %139, i32 noundef 3, i32 noundef 0)
  %141 = load i32, ptr %9, align 4
  %142 = add i32 %141, 3
  store i32 %142, ptr %9, align 4
  %143 = load ptr, ptr %10, align 8
  %144 = load i32, ptr @hf_ulmap_feedback_polling_period, align 4
  %145 = load ptr, ptr %8, align 8
  %146 = load i32, ptr %9, align 4
  %147 = call ptr @proto_tree_add_bits_item(ptr noundef %143, i32 noundef %144, ptr noundef %145, i32 noundef %146, i32 noundef 2, i32 noundef 0)
  %148 = load i32, ptr %9, align 4
  %149 = add i32 %148, 2
  store i32 %149, ptr %9, align 4
  %150 = load i32, ptr %12, align 4
  %151 = icmp eq i32 %150, 1
  br i1 %151, label %152, label %188

152:                                              ; preds = %128
  %153 = load ptr, ptr %10, align 8
  %154 = load i32, ptr @hf_ulmap_feedback_polling_uiuc, align 4
  %155 = load ptr, ptr %8, align 8
  %156 = load i32, ptr %9, align 4
  %157 = call ptr @proto_tree_add_bits_item(ptr noundef %153, i32 noundef %154, ptr noundef %155, i32 noundef %156, i32 noundef 4, i32 noundef 0)
  %158 = load i32, ptr %9, align 4
  %159 = add i32 %158, 4
  store i32 %159, ptr %9, align 4
  %160 = load ptr, ptr %10, align 8
  %161 = load i32, ptr @hf_ulmap_feedback_polling_ofdma_symbol_offset, align 4
  %162 = load ptr, ptr %8, align 8
  %163 = load i32, ptr %9, align 4
  %164 = call ptr @proto_tree_add_bits_item(ptr noundef %160, i32 noundef %161, ptr noundef %162, i32 noundef %163, i32 noundef 8, i32 noundef 0)
  %165 = load i32, ptr %9, align 4
  %166 = add i32 %165, 8
  store i32 %166, ptr %9, align 4
  %167 = load ptr, ptr %10, align 8
  %168 = load i32, ptr @hf_ulmap_feedback_polling_subchannel_offset, align 4
  %169 = load ptr, ptr %8, align 8
  %170 = load i32, ptr %9, align 4
  %171 = call ptr @proto_tree_add_bits_item(ptr noundef %167, i32 noundef %168, ptr noundef %169, i32 noundef %170, i32 noundef 7, i32 noundef 0)
  %172 = load i32, ptr %9, align 4
  %173 = add i32 %172, 7
  store i32 %173, ptr %9, align 4
  %174 = load ptr, ptr %10, align 8
  %175 = load i32, ptr @hf_ulmap_feedback_polling_duration, align 4
  %176 = load ptr, ptr %8, align 8
  %177 = load i32, ptr %9, align 4
  %178 = call ptr @proto_tree_add_bits_item(ptr noundef %174, i32 noundef %175, ptr noundef %176, i32 noundef %177, i32 noundef 3, i32 noundef 0)
  %179 = load i32, ptr %9, align 4
  %180 = add i32 %179, 3
  store i32 %180, ptr %9, align 4
  %181 = load ptr, ptr %10, align 8
  %182 = load i32, ptr @hf_ulmap_feedback_polling_repetition_coding_indication, align 4
  %183 = load ptr, ptr %8, align 8
  %184 = load i32, ptr %9, align 4
  %185 = call ptr @proto_tree_add_bits_item(ptr noundef %181, i32 noundef %182, ptr noundef %183, i32 noundef %184, i32 noundef 2, i32 noundef 0)
  %186 = load i32, ptr %9, align 4
  %187 = add i32 %186, 2
  store i32 %187, ptr %9, align 4
  br label %188

188:                                              ; preds = %152, %128
  br label %189

189:                                              ; preds = %188, %125
  br label %190

190:                                              ; preds = %189
  %191 = load i32, ptr %15, align 4
  %192 = add i32 %191, 1
  store i32 %192, ptr %15, align 4
  br label %93, !llvm.loop !17

193:                                              ; preds = %93
  %194 = load i32, ptr %9, align 4
  %195 = srem i32 %194, 8
  %196 = icmp ne i32 %195, 0
  br i1 %196, label %197, label %201

197:                                              ; preds = %193
  %198 = load i32, ptr %9, align 4
  %199 = srem i32 %198, 8
  %200 = sub i32 8, %199
  br label %202

201:                                              ; preds = %193
  br label %202

202:                                              ; preds = %201, %197
  %203 = phi i32 [ %200, %197 ], [ 0, %201 ]
  store i32 %203, ptr %13, align 4
  %204 = load i32, ptr %13, align 4
  %205 = icmp ne i32 %204, 0
  br i1 %205, label %206, label %224

206:                                              ; preds = %202
  %207 = load ptr, ptr %10, align 8
  %208 = load i32, ptr @hf_ulmap_padding, align 4
  %209 = load ptr, ptr %8, align 8
  %210 = load i32, ptr %9, align 4
  %211 = sdiv i32 %210, 8
  %212 = load i32, ptr %9, align 4
  %213 = srem i32 %212, 8
  %214 = load i32, ptr %13, align 4
  %215 = add i32 %213, %214
  %216 = sub i32 %215, 1
  %217 = sdiv i32 %216, 8
  %218 = add i32 1, %217
  %219 = load i32, ptr %13, align 4
  %220 = call ptr (ptr, i32, ptr, i32, i32, ptr, ptr, ...) @proto_tree_add_bytes_format_value(ptr noundef %207, i32 noundef %208, ptr noundef %209, i32 noundef %211, i32 noundef %218, ptr noundef null, ptr noundef @.str.525, i32 noundef %219)
  %221 = load i32, ptr %13, align 4
  %222 = load i32, ptr %9, align 4
  %223 = add i32 %222, %221
  store i32 %223, ptr %9, align 4
  br label %224

224:                                              ; preds = %206, %202
  %225 = load i32, ptr %9, align 4
  %226 = sdiv i32 %225, 4
  call void @llvm.lifetime.end.p0(i64 4, ptr %15) #5
  call void @llvm.lifetime.end.p0(i64 4, ptr %14) #5
  call void @llvm.lifetime.end.p0(i64 4, ptr %13) #5
  call void @llvm.lifetime.end.p0(i64 4, ptr %12) #5
  call void @llvm.lifetime.end.p0(i64 4, ptr %11) #5
  call void @llvm.lifetime.end.p0(i64 8, ptr %10) #5
  call void @llvm.lifetime.end.p0(i64 4, ptr %9) #5
  ret i32 %226
}