; Function Attrs: null_pointer_is_valid sspstrong uwtable
define internal fastcc range(i32 -536870912, 536870912) i32 @Feedback_Polling_IE(ptr noundef %0, i32 noundef %1, i32 noundef range(i32 3, 514) %2, ptr noundef %3) unnamed_addr #1 {
  %5 = shl i32 %1, 2
  %6 = sdiv i32 %1, 2
  %7 = and i32 %1, 1
  %8 = add nuw nsw i32 %7, 1
  %9 = add nuw nsw i32 %8, %2
  %10 = lshr i32 %9, 1
  %11 = load i32, ptr @ett_302v, align 4
  %12 = tail call ptr @proto_tree_add_subtree(ptr noundef %0, ptr noundef %3, i32 noundef %6, i32 noundef %10, i32 noundef %11, ptr noundef null, ptr noundef nonnull @.str.543)
  %13 = load i32, ptr @hf_ulmap_feedback_polling_extended_2_uiuc, align 4
  %14 = tail call ptr @proto_tree_add_bits_item(ptr noundef %12, i32 noundef %13, ptr noundef %3, i32 noundef %5, i32 noundef 4, i32 noundef 0)
  %15 = add i32 %5, 4
  %16 = load i32, ptr @hf_ulmap_feedback_polling_length, align 4
  %17 = tail call ptr @proto_tree_add_bits_item(ptr noundef %12, i32 noundef %16, ptr noundef %3, i32 noundef %15, i32 noundef 8, i32 noundef 0)
  %18 = add i32 %5, 12
  %19 = sdiv i32 %18, 8
  %20 = tail call zeroext i16 @tvb_get_ntohs(ptr noundef %3, i32 noundef %19)
  %21 = zext i16 %20 to i32
  %22 = srem i32 %18, 8
  %23 = sub nsw i32 12, %22
  %24 = lshr i32 %21, %23
  %25 = and i32 %24, 15
  %26 = load i32, ptr @hf_ulmap_feedback_polling_num_allocation, align 4
  %27 = tail call ptr @proto_tree_add_bits_item(ptr noundef %12, i32 noundef %26, ptr noundef %3, i32 noundef %18, i32 noundef 4, i32 noundef 0)
  %28 = add i32 %5, 16
  %29 = sdiv i32 %28, 8
  %30 = srem i32 %28, 8
  %31 = tail call zeroext i8 @tvb_get_uint8(ptr noundef %3, i32 noundef %29)
  %32 = load i32, ptr @hf_ulmap_feedback_polling_dedicated_ul_allocation_included, align 4
  %33 = tail call ptr @proto_tree_add_bits_item(ptr noundef %12, i32 noundef %32, ptr noundef %3, i32 noundef %28, i32 noundef 1, i32 noundef 0)
  %34 = add i32 %5, 17
  %35 = load i32, ptr @hf_ulmap_reserved_uint, align 4
  %36 = tail call ptr @proto_tree_add_bits_item(ptr noundef %12, i32 noundef %35, ptr noundef %3, i32 noundef %34, i32 noundef 3, i32 noundef 0)
  %37 = add i32 %5, 20
  %.not100 = icmp eq i32 %25, 0
  br i1 %.not100, label %._crit_edge, label %.lr.ph

.lr.ph:                                           ; preds = %4
  %38 = sub nsw i32 7, %30
  %39 = zext i8 %31 to i32
  %40 = shl nuw nsw i32 1, %38
  %41 = and i32 %40, %39
  %.not96 = icmp eq i32 %41, 0
  br label %42

42:                                               ; preds = %.lr.ph, %82
  %.099 = phi i32 [ 0, %.lr.ph ], [ %83, %82 ]
  %.09198 = phi i32 [ %37, %.lr.ph ], [ %.1, %82 ]
  %43 = load i32, ptr @hf_ulmap_feedback_polling_basic_cid, align 4
  %44 = tail call ptr @proto_tree_add_bits_item(ptr noundef %12, i32 noundef %43, ptr noundef %3, i32 noundef %.09198, i32 noundef 16, i32 noundef 0)
  %45 = add i32 %.09198, 16
  %46 = sdiv i32 %45, 8
  %47 = tail call zeroext i16 @tvb_get_ntohs(ptr noundef %3, i32 noundef %46)
  %48 = zext i16 %47 to i32
  %49 = srem i32 %45, 8
  %50 = sub nsw i32 13, %49
  %51 = load i32, ptr @hf_ulmap_feedback_polling_allocation_duration, align 4
  %52 = tail call ptr @proto_tree_add_bits_item(ptr noundef %12, i32 noundef %51, ptr noundef %3, i32 noundef %45, i32 noundef 3, i32 noundef 0)
  %53 = add i32 %.09198, 19
  %54 = shl nuw nsw i32 7, %50
  %55 = and i32 %54, %48
  %.not95 = icmp eq i32 %55, 0
  br i1 %.not95, label %82, label %56

56:                                               ; preds = %42
  %57 = load i32, ptr @hf_ulmap_feedback_polling_type, align 4
  %58 = tail call ptr @proto_tree_add_bits_item(ptr noundef %12, i32 noundef %57, ptr noundef %3, i32 noundef %53, i32 noundef 4, i32 noundef 0)
  %59 = add i32 %.09198, 23
  %60 = load i32, ptr @hf_ulmap_feedback_polling_frame_offset, align 4
  %61 = tail call ptr @proto_tree_add_bits_item(ptr noundef %12, i32 noundef %60, ptr noundef %3, i32 noundef %59, i32 noundef 3, i32 noundef 0)
  %62 = add i32 %.09198, 26
  %63 = load i32, ptr @hf_ulmap_feedback_polling_period, align 4
  %64 = tail call ptr @proto_tree_add_bits_item(ptr noundef %12, i32 noundef %63, ptr noundef %3, i32 noundef %62, i32 noundef 2, i32 noundef 0)
  %65 = add i32 %.09198, 28
  br i1 %.not96, label %82, label %66

66:                                               ; preds = %56
  %67 = load i32, ptr @hf_ulmap_feedback_polling_uiuc, align 4
  %68 = tail call ptr @proto_tree_add_bits_item(ptr noundef %12, i32 noundef %67, ptr noundef %3, i32 noundef %65, i32 noundef 4, i32 noundef 0)
  %69 = add i32 %.09198, 32
  %70 = load i32, ptr @hf_ulmap_feedback_polling_ofdma_symbol_offset, align 4
  %71 = tail call ptr @proto_tree_add_bits_item(ptr noundef %12, i32 noundef %70, ptr noundef %3, i32 noundef %69, i32 noundef 8, i32 noundef 0)
  %72 = add i32 %.09198, 40
  %73 = load i32, ptr @hf_ulmap_feedback_polling_subchannel_offset, align 4
  %74 = tail call ptr @proto_tree_add_bits_item(ptr noundef %12, i32 noundef %73, ptr noundef %3, i32 noundef %72, i32 noundef 7, i32 noundef 0)
  %75 = add i32 %.09198, 47
  %76 = load i32, ptr @hf_ulmap_feedback_polling_duration, align 4
  %77 = tail call ptr @proto_tree_add_bits_item(ptr noundef %12, i32 noundef %76, ptr noundef %3, i32 noundef %75, i32 noundef 3, i32 noundef 0)
  %78 = add i32 %.09198, 50
  %79 = load i32, ptr @hf_ulmap_feedback_polling_repetition_coding_indication, align 4
  %80 = tail call ptr @proto_tree_add_bits_item(ptr noundef %12, i32 noundef %79, ptr noundef %3, i32 noundef %78, i32 noundef 2, i32 noundef 0)
  %81 = add i32 %.09198, 52
  br label %82

82:                                               ; preds = %42, %66, %56
  %.1 = phi i32 [ %81, %66 ], [ %65, %56 ], [ %53, %42 ]
  %83 = add nuw nsw i32 %.099, 1
  %exitcond.not = icmp eq i32 %83, %25
  br i1 %exitcond.not, label %._crit_edge, label %42, !llvm.loop !20

._crit_edge:                                      ; preds = %82, %4
  %.091.lcssa = phi i32 [ %37, %4 ], [ %.1, %82 ]
  %84 = srem i32 %.091.lcssa, 8
  %85 = sdiv i32 %.091.lcssa, 8
  %.not = icmp eq i32 %84, 0
  br i1 %.not, label %91, label %86

86:                                               ; preds = %._crit_edge
  %87 = sub nsw i32 8, %84
  %88 = load i32, ptr @hf_ulmap_padding, align 4
  %89 = tail call ptr (ptr, i32, ptr, i32, i32, ptr, ptr, ...) @proto_tree_add_bytes_format_value(ptr noundef %12, i32 noundef %88, ptr noundef %3, i32 noundef %85, i32 noundef 1, ptr noundef null, ptr noundef nonnull @.str.525, i32 noundef %87)
  %90 = add i32 %87, %.091.lcssa
  br label %91

91:                                               ; preds = %86, %._crit_edge
  %.2 = phi i32 [ %90, %86 ], [ %.091.lcssa, %._crit_edge ]
  %92 = sdiv i32 %.2, 4
  ret i32 %92
}